; Function Attrs: nofree nosync nounwind memory(readwrite, inaccessiblemem: none) uwtable
define void @Str_MuxTraverse_rec(ptr noundef %0, i32 noundef %1) local_unnamed_addr #9 {
  %3 = getelementptr i8, ptr %0, i64 176
  %4 = getelementptr i8, ptr %0, i64 616
  %.val2234 = load i32, ptr %3, align 8, !tbaa !82
  %.val2335 = load ptr, ptr %4, align 8, !tbaa !83
  %5 = sext i32 %1 to i64
  %6 = getelementptr inbounds i32, ptr %.val2335, i64 %5
  %7 = load i32, ptr %6, align 4, !tbaa !38
  %.not36 = icmp eq i32 %7, %.val2234
  br i1 %.not36, label %Gia_ObjIsMux.exit.thread, label %.lr.ph

.lr.ph:                                           ; preds = %2
  %8 = getelementptr i8, ptr %0, i64 32
  %9 = getelementptr i8, ptr %0, i64 40
  %.val.pre = load ptr, ptr %8, align 8, !tbaa !46
  br label %10

10:                                               ; preds = %.lr.ph, %Gia_ObjFaninId2.exit
  %.val = phi ptr [ %.val.pre, %.lr.ph ], [ %.val20, %Gia_ObjFaninId2.exit ]
  %11 = phi ptr [ %6, %.lr.ph ], [ %36, %Gia_ObjFaninId2.exit ]
  %12 = phi i64 [ %5, %.lr.ph ], [ %35, %Gia_ObjFaninId2.exit ]
  %.val2238 = phi i32 [ %.val2234, %.lr.ph ], [ %.val22, %Gia_ObjFaninId2.exit ]
  %.tr3337 = phi i32 [ %1, %.lr.ph ], [ %spec.select.i, %Gia_ObjFaninId2.exit ]
  store i32 %.val2238, ptr %11, align 4, !tbaa !38
  %13 = getelementptr inbounds %struct.Gia_Obj_t_, ptr %.val, i64 %12
  %.val19 = load i64, ptr %13, align 4
  %14 = and i64 %.val19, 2147483648
  %.not.i = icmp ne i64 %14, 0
  %15 = and i64 %.val19, 536870911
  %16 = icmp eq i64 %15, 536870911
  %narrow.i.not = or i1 %.not.i, %16
  br i1 %narrow.i.not, label %Gia_ObjIsMux.exit.thread, label %17

17:                                               ; preds = %10
  %18 = trunc i64 %.val19 to i32
  %19 = and i32 %18, 536870911
  %20 = sub nsw i32 %.tr3337, %19
  tail call void @Str_MuxTraverse_rec(ptr noundef nonnull %0, i32 noundef %20)
  %.val27 = load i64, ptr %13, align 4
  %21 = lshr i64 %.val27, 32
  %22 = trunc nuw i64 %21 to i32
  %23 = and i32 %22, 536870911
  %24 = sub nsw i32 %.tr3337, %23
  tail call void @Str_MuxTraverse_rec(ptr noundef nonnull %0, i32 noundef %24)
  %.val21 = load ptr, ptr %9, align 8, !tbaa !53
  %.not.i.i = icmp eq ptr %.val21, null
  br i1 %.not.i.i, label %Gia_ObjIsMux.exit.thread, label %Gia_ObjIsMux.exit

Gia_ObjIsMux.exit:                                ; preds = %17
  %.val20 = load ptr, ptr %8, align 8, !tbaa !46
  %25 = ptrtoint ptr %13 to i64
  %26 = ptrtoint ptr %.val20 to i64
  %27 = sub i64 %25, %26
  %28 = sdiv exact i64 %27, 12
  %sext.i = shl i64 %28, 32
  %29 = ashr exact i64 %sext.i, 30
  %30 = getelementptr inbounds i8, ptr %.val21, i64 %29
  %31 = load i32, ptr %30, align 4, !tbaa !38
  %.not32 = icmp eq i32 %31, 0
  br i1 %.not32, label %Gia_ObjIsMux.exit.thread, label %Gia_ObjFaninId2.exit

Gia_ObjFaninId2.exit:                             ; preds = %Gia_ObjIsMux.exit
  %32 = getelementptr inbounds i32, ptr %.val21, i64 %12
  %33 = load i32, ptr %32, align 4, !tbaa !38
  %.not5.i = icmp eq i32 %33, 0
  %34 = ashr i32 %33, 1
  %spec.select.i = select i1 %.not5.i, i32 -1, i32 %34
  %.val22 = load i32, ptr %3, align 8, !tbaa !82
  %.val23 = load ptr, ptr %4, align 8, !tbaa !83
  %35 = sext i32 %spec.select.i to i64
  %36 = getelementptr inbounds i32, ptr %.val23, i64 %35
  %37 = load i32, ptr %36, align 4, !tbaa !38
  %.not = icmp eq i32 %37, %.val22
  br i1 %.not, label %Gia_ObjIsMux.exit.thread, label %10

Gia_ObjIsMux.exit.thread:                         ; preds = %Gia_ObjFaninId2.exit, %10, %Gia_ObjIsMux.exit, %17, %2
  ret void
}